; Function Attrs: mustprogress uwtable
define void @_ZNK4pkpy3Str5upperEv(ptr dead_on_unwind noalias writable sret(%"struct.pkpy::Str") align 8 %0, ptr nocapture noundef nonnull readonly align 8 dereferenceable(32) %1) local_unnamed_addr #3 align 2 personality ptr @__gxx_personality_v0 {
  %3 = alloca %"class.std::__cxx11::basic_string", align 8
  %4 = alloca %"class.std::allocator", align 1
  %5 = getelementptr inbounds i8, ptr %1, i64 8
  %6 = load ptr, ptr %5, align 8
  %7 = load i32, ptr %1, align 8
  %8 = sext i32 %7 to i64
  call void @_ZNSaIcEC1Ev(ptr noundef nonnull align 1 dereferenceable(1) %4) #23
  invoke void @_ZNSt7__cxx1112basic_stringIcSt11char_traitsIcESaIcEEC1EPKcmRKS3_(ptr noundef nonnull align 8 dereferenceable(32) %3, ptr noundef %6, i64 noundef %8, ptr noundef nonnull align 1 dereferenceable(1) %4)
          to label %9 unwind label %19

9:                                                ; preds = %2
  call void @_ZNSaIcED1Ev(ptr noundef nonnull align 1 dereferenceable(1) %4) #23
  %10 = call ptr @_ZNSt7__cxx1112basic_stringIcSt11char_traitsIcESaIcEE5beginEv(ptr noundef nonnull align 8 dereferenceable(32) %3) #23
  %11 = call ptr @_ZNSt7__cxx1112basic_stringIcSt11char_traitsIcESaIcEE3endEv(ptr noundef nonnull align 8 dereferenceable(32) %3) #23
  %12 = call ptr @_ZNSt7__cxx1112basic_stringIcSt11char_traitsIcESaIcEE5beginEv(ptr noundef nonnull align 8 dereferenceable(32) %3) #23
  %.not6.i = icmp eq ptr %10, %11
  br i1 %.not6.i, label %"_ZSt9transformIN9__gnu_cxx17__normal_iteratorIPcNSt7__cxx1112basic_stringIcSt11char_traitsIcESaIcEEEEES9_ZNK4pkpy3Str5upperEvE3$_0ET0_T_SE_SD_T1_.exit", label %.lr.ph.i

.lr.ph.i:                                         ; preds = %9, %.lr.ph.i
  %.sroa.0.08.i = phi ptr [ %17, %.lr.ph.i ], [ %12, %9 ]
  %.sroa.03.07.i = phi ptr [ %16, %.lr.ph.i ], [ %10, %9 ]
  %13 = load i8, ptr %.sroa.03.07.i, align 1
  %14 = add i8 %13, -97
  %or.cond.i.i = icmp ult i8 %14, 26
  %15 = add i8 %13, -32
  %.0.i.i = select i1 %or.cond.i.i, i8 %15, i8 %13
  store i8 %.0.i.i, ptr %.sroa.0.08.i, align 1
  %16 = getelementptr inbounds i8, ptr %.sroa.03.07.i, i64 1
  %17 = getelementptr inbounds i8, ptr %.sroa.0.08.i, i64 1
  %.not.i = icmp eq ptr %16, %11
  br i1 %.not.i, label %"_ZSt9transformIN9__gnu_cxx17__normal_iteratorIPcNSt7__cxx1112basic_stringIcSt11char_traitsIcESaIcEEEEES9_ZNK4pkpy3Str5upperEvE3$_0ET0_T_SE_SD_T1_.exit", label %.lr.ph.i, !llvm.loop !62

"_ZSt9transformIN9__gnu_cxx17__normal_iteratorIPcNSt7__cxx1112basic_stringIcSt11char_traitsIcESaIcEEEEES9_ZNK4pkpy3Str5upperEvE3$_0ET0_T_SE_SD_T1_.exit": ; preds = %.lr.ph.i, %9
  invoke void @_ZN4pkpy3StrC1ERKNSt7__cxx1112basic_stringIcSt11char_traitsIcESaIcEEE(ptr noundef nonnull align 8 dereferenceable(32) %0, ptr noundef nonnull align 8 dereferenceable(32) %3)
          to label %18 unwind label %21

18:                                               ; preds = %"_ZSt9transformIN9__gnu_cxx17__normal_iteratorIPcNSt7__cxx1112basic_stringIcSt11char_traitsIcESaIcEEEEES9_ZNK4pkpy3Str5upperEvE3$_0ET0_T_SE_SD_T1_.exit"
  call void @_ZNSt7__cxx1112basic_stringIcSt11char_traitsIcESaIcEED1Ev(ptr noundef nonnull align 8 dereferenceable(32) %3) #23
  ret void

19:                                               ; preds = %2
  %20 = landingpad { ptr, i32 }
          cleanup
  call void @_ZNSaIcED1Ev(ptr noundef nonnull align 1 dereferenceable(1) %4) #23
  br label %23

21:                                               ; preds = %"_ZSt9transformIN9__gnu_cxx17__normal_iteratorIPcNSt7__cxx1112basic_stringIcSt11char_traitsIcESaIcEEEEES9_ZNK4pkpy3Str5upperEvE3$_0ET0_T_SE_SD_T1_.exit"
  %22 = landingpad { ptr, i32 }
          cleanup
  call void @_ZNSt7__cxx1112basic_stringIcSt11char_traitsIcESaIcEED1Ev(ptr noundef nonnull align 8 dereferenceable(32) %3) #23
  br label %23

23:                                               ; preds = %21, %19
  %.pn = phi { ptr, i32 } [ %22, %21 ], [ %20, %19 ]
  resume { ptr, i32 } %.pn
}